target datalayout = "e-m:e-p270:32:32-p271:32:32-p272:64:64-i64:64-i128:128-f80:128-n8:16:32:64-S128"
target triple = "x86_64-pc-linux-gnu"

%"class.Assimp::MDCImporter" = type <{ %"class.Assimp::BaseImporter", i32, [4 x i8], ptr, ptr, i32, [4 x i8] }>
%"class.Assimp::BaseImporter" = type { ptr, double, double, %"class.std::__cxx11::basic_string", %"class.std::__exception_ptr::exception_ptr", ptr }
%"class.std::__cxx11::basic_string" = type { %"struct.std::__cxx11::basic_string<char>::_Alloc_hider", i64, %union.anon }
%"struct.std::__cxx11::basic_string<char>::_Alloc_hider" = type { ptr }
%union.anon = type { i64, [8 x i8] }
%"class.std::__exception_ptr::exception_ptr" = type { ptr }

@.str.7 = private unnamed_addr constant [20 x i8] c"IMPORT_MDC_KEYFRAME\00", align 1
@.str.8 = private unnamed_addr constant [23 x i8] c"IMPORT_GLOBAL_KEYFRAME\00", align 1

; Function Attrs: mustprogress uwtable
define hidden void @_ZN6Assimp11MDCImporter15SetupPropertiesEPKNS_8ImporterE(ptr noundef nonnull align 8 dereferenceable(100) %0, ptr noundef %1) unnamed_addr #4 align 2 {
  %3 = alloca ptr, align 8
  %4 = alloca ptr, align 8
  store ptr %0, ptr %3, align 8
  store ptr %1, ptr %4, align 8
  %5 = load ptr, ptr %3, align 8
  %6 = load ptr, ptr %4, align 8
  %7 = call noundef i32 @_ZNK6Assimp8Importer18GetPropertyIntegerEPKci(ptr noundef nonnull align 8 dereferenceable(8) %6, ptr noundef @.str.7, i32 noundef -1)
  %8 = getelementptr inbounds nuw %"class.Assimp::MDCImporter", ptr %5, i32 0, i32 1
  store i32 %7, ptr %8, align 8
  %9 = icmp eq i32 -1, %7
  br i1 %9, label %10, label %14

10:                                               ; preds = %2
  %11 = load ptr, ptr %4, align 8
  %12 = call noundef i32 @_ZNK6Assimp8Importer18GetPropertyIntegerEPKci(ptr noundef nonnull align 8 dereferenceable(8) %11, ptr noundef @.str.8, i32 noundef 0)
  %13 = getelementptr inbounds nuw %"class.Assimp::MDCImporter", ptr %5, i32 0, i32 1
  store i32 %12, ptr %13, align 8
  br label %14

14:                                               ; preds = %10, %2
  ret void
}